target datalayout = "e-m:e-p270:32:32-p271:32:32-p272:64:64-i64:64-i128:128-f80:128-n8:16:32:64-S128"
target triple = "x86_64-pc-linux-gnu"

%struct.AVFilterContext = type { ptr, ptr, ptr, ptr, ptr, i32, ptr, ptr, i32, ptr, ptr, i32, i32, ptr, ptr, ptr, ptr, i32, ptr, i32, i32 }
%struct.XFadeContext = type { ptr, i32, i64, i64, ptr, i32, i32, i32, i64, i64, i64, i64, i32, [2 x i32], [2 x ptr], i32, [4 x i16], [4 x i16], ptr, ptr }
%struct.AVRational = type { i32, i32 }
%struct.AVFrame = type { [8 x ptr], [8 x i32], ptr, i32, i32, i32, i32, i32, %struct.AVRational, i64, i64, %struct.AVRational, i32, ptr, i32, i32, [8 x ptr], ptr, i32, ptr, i32, i32, i32, i32, i32, i32, i32, i64, ptr, i32, ptr, ptr, i64, i64, i64, i64, ptr, %struct.AVChannelLayout, i64 }
%struct.AVChannelLayout = type { i32, i32, %union.anon.1, ptr }
%union.anon.1 = type { i64 }

; Function Attrs: nounwind uwtable
define internal void @coverleft8_transition(ptr noundef %0, ptr noundef %1, ptr noundef %2, ptr noundef %3, float noundef %4, i32 noundef %5, i32 noundef %6, i32 noundef %7) #1 {
  %9 = alloca ptr, align 8
  %10 = alloca ptr, align 8
  %11 = alloca ptr, align 8
  %12 = alloca ptr, align 8
  %13 = alloca float, align 4
  %14 = alloca i32, align 4
  %15 = alloca i32, align 4
  %16 = alloca i32, align 4
  %17 = alloca ptr, align 8
  %18 = alloca i32, align 4
  %19 = alloca i32, align 4
  %20 = alloca i32, align 4
  %21 = alloca i32, align 4
  %22 = alloca i32, align 4
  %23 = alloca ptr, align 8
  %24 = alloca ptr, align 8
  %25 = alloca ptr, align 8
  %26 = alloca i32, align 4
  %27 = alloca i32, align 4
  %28 = alloca i32, align 4
  %29 = alloca i32, align 4
  store ptr %0, ptr %9, align 8, !tbaa !4
  store ptr %1, ptr %10, align 8, !tbaa !36
  store ptr %2, ptr %11, align 8, !tbaa !36
  store ptr %3, ptr %12, align 8, !tbaa !36
  store float %4, ptr %13, align 4, !tbaa !90
  store i32 %5, ptr %14, align 4, !tbaa !32
  store i32 %6, ptr %15, align 4, !tbaa !32
  store i32 %7, ptr %16, align 4, !tbaa !32
  call void @llvm.lifetime.start.p0(i64 8, ptr %17) #10
  %30 = load ptr, ptr %9, align 8, !tbaa !4
  %31 = getelementptr inbounds nuw %struct.AVFilterContext, ptr %30, i32 0, i32 9
  %32 = load ptr, ptr %31, align 8, !tbaa !9
  store ptr %32, ptr %17, align 8, !tbaa !22
  call void @llvm.lifetime.start.p0(i64 4, ptr %18) #10
  %33 = load i32, ptr %15, align 4, !tbaa !32
  %34 = load i32, ptr %14, align 4, !tbaa !32
  %35 = sub nsw i32 %33, %34
  store i32 %35, ptr %18, align 4, !tbaa !32
  call void @llvm.lifetime.start.p0(i64 4, ptr %19) #10
  %36 = load ptr, ptr %12, align 8, !tbaa !36
  %37 = getelementptr inbounds nuw %struct.AVFrame, ptr %36, i32 0, i32 3
  %38 = load i32, ptr %37, align 8, !tbaa !92
  store i32 %38, ptr %19, align 4, !tbaa !32
  call void @llvm.lifetime.start.p0(i64 4, ptr %20) #10
  %39 = load float, ptr %13, align 4, !tbaa !90
  %40 = fneg nsz float %39
  %41 = load i32, ptr %19, align 4, !tbaa !32
  %42 = sitofp i32 %41 to float
  %43 = fmul nsz float %40, %42
  %44 = fptosi float %43 to i32
  store i32 %44, ptr %20, align 4, !tbaa !32
  call void @llvm.lifetime.start.p0(i64 4, ptr %21) #10
  store i32 0, ptr %21, align 4, !tbaa !32
  br label %45

45:                                               ; preds = %190, %8
  %46 = load i32, ptr %21, align 4, !tbaa !32
  %47 = load ptr, ptr %17, align 8, !tbaa !22
  %48 = getelementptr inbounds nuw %struct.XFadeContext, ptr %47, i32 0, i32 5
  %49 = load i32, ptr %48, align 8, !tbaa !82
  %50 = icmp slt i32 %46, %49
  br i1 %50, label %52, label %51

51:                                               ; preds = %45
  store i32 2, ptr %22, align 4
  call void @llvm.lifetime.end.p0(i64 4, ptr %21) #10
  br label %193

52:                                               ; preds = %45
  call void @llvm.lifetime.start.p0(i64 8, ptr %23) #10
  %53 = load ptr, ptr %10, align 8, !tbaa !36
  %54 = getelementptr inbounds nuw %struct.AVFrame, ptr %53, i32 0, i32 0
  %55 = load i32, ptr %21, align 4, !tbaa !32
  %56 = sext i32 %55 to i64
  %57 = getelementptr inbounds [8 x ptr], ptr %54, i64 0, i64 %56
  %58 = load ptr, ptr %57, align 8, !tbaa !96
  %59 = load i32, ptr %14, align 4, !tbaa !32
  %60 = load ptr, ptr %10, align 8, !tbaa !36
  %61 = getelementptr inbounds nuw %struct.AVFrame, ptr %60, i32 0, i32 1
  %62 = load i32, ptr %21, align 4, !tbaa !32
  %63 = sext i32 %62 to i64
  %64 = getelementptr inbounds [8 x i32], ptr %61, i64 0, i64 %63
  %65 = load i32, ptr %64, align 4, !tbaa !32
  %66 = mul nsw i32 %59, %65
  %67 = sext i32 %66 to i64
  %68 = getelementptr inbounds i8, ptr %58, i64 %67
  store ptr %68, ptr %23, align 8, !tbaa !96
  call void @llvm.lifetime.start.p0(i64 8, ptr %24) #10
  %69 = load ptr, ptr %11, align 8, !tbaa !36
  %70 = getelementptr inbounds nuw %struct.AVFrame, ptr %69, i32 0, i32 0
  %71 = load i32, ptr %21, align 4, !tbaa !32
  %72 = sext i32 %71 to i64
  %73 = getelementptr inbounds [8 x ptr], ptr %70, i64 0, i64 %72
  %74 = load ptr, ptr %73, align 8, !tbaa !96
  %75 = load i32, ptr %14, align 4, !tbaa !32
  %76 = load ptr, ptr %11, align 8, !tbaa !36
  %77 = getelementptr inbounds nuw %struct.AVFrame, ptr %76, i32 0, i32 1
  %78 = load i32, ptr %21, align 4, !tbaa !32
  %79 = sext i32 %78 to i64
  %80 = getelementptr inbounds [8 x i32], ptr %77, i64 0, i64 %79
  %81 = load i32, ptr %80, align 4, !tbaa !32
  %82 = mul nsw i32 %75, %81
  %83 = sext i32 %82 to i64
  %84 = getelementptr inbounds i8, ptr %74, i64 %83
  store ptr %84, ptr %24, align 8, !tbaa !96
  call void @llvm.lifetime.start.p0(i64 8, ptr %25) #10
  %85 = load ptr, ptr %12, align 8, !tbaa !36
  %86 = getelementptr inbounds nuw %struct.AVFrame, ptr %85, i32 0, i32 0
  %87 = load i32, ptr %21, align 4, !tbaa !32
  %88 = sext i32 %87 to i64
  %89 = getelementptr inbounds [8 x ptr], ptr %86, i64 0, i64 %88
  %90 = load ptr, ptr %89, align 8, !tbaa !96
  %91 = load i32, ptr %14, align 4, !tbaa !32
  %92 = load ptr, ptr %12, align 8, !tbaa !36
  %93 = getelementptr inbounds nuw %struct.AVFrame, ptr %92, i32 0, i32 1
  %94 = load i32, ptr %21, align 4, !tbaa !32
  %95 = sext i32 %94 to i64
  %96 = getelementptr inbounds [8 x i32], ptr %93, i64 0, i64 %95
  %97 = load i32, ptr %96, align 4, !tbaa !32
  %98 = mul nsw i32 %91, %97
  %99 = sext i32 %98 to i64
  %100 = getelementptr inbounds i8, ptr %90, i64 %99
  store ptr %100, ptr %25, align 8, !tbaa !96
  call void @llvm.lifetime.start.p0(i64 4, ptr %26) #10
  store i32 0, ptr %26, align 4, !tbaa !32
  br label %101

101:                                              ; preds = %186, %52
  %102 = load i32, ptr %26, align 4, !tbaa !32
  %103 = load i32, ptr %18, align 4, !tbaa !32
  %104 = icmp slt i32 %102, %103
  br i1 %104, label %106, label %105

105:                                              ; preds = %101
  store i32 5, ptr %22, align 4
  call void @llvm.lifetime.end.p0(i64 4, ptr %26) #10
  br label %189

106:                                              ; preds = %101
  call void @llvm.lifetime.start.p0(i64 4, ptr %27) #10
  store i32 0, ptr %27, align 4, !tbaa !32
  br label %107

107:                                              ; preds = %152, %106
  %108 = load i32, ptr %27, align 4, !tbaa !32
  %109 = load i32, ptr %19, align 4, !tbaa !32
  %110 = icmp slt i32 %108, %109
  br i1 %110, label %112, label %111

111:                                              ; preds = %107
  store i32 8, ptr %22, align 4
  call void @llvm.lifetime.end.p0(i64 4, ptr %27) #10
  br label %155

112:                                              ; preds = %107
  call void @llvm.lifetime.start.p0(i64 4, ptr %28) #10
  %113 = load i32, ptr %20, align 4, !tbaa !32
  %114 = load i32, ptr %27, align 4, !tbaa !32
  %115 = add nsw i32 %113, %114
  store i32 %115, ptr %28, align 4, !tbaa !32
  call void @llvm.lifetime.start.p0(i64 4, ptr %29) #10
  %116 = load i32, ptr %28, align 4, !tbaa !32
  %117 = load i32, ptr %19, align 4, !tbaa !32
  %118 = srem i32 %116, %117
  %119 = load i32, ptr %19, align 4, !tbaa !32
  %120 = load i32, ptr %28, align 4, !tbaa !32
  %121 = icmp slt i32 %120, 0
  %122 = zext i1 %121 to i32
  %123 = mul nsw i32 %119, %122
  %124 = add nsw i32 %118, %123
  store i32 %124, ptr %29, align 4, !tbaa !32
  %125 = load i32, ptr %28, align 4, !tbaa !32
  %126 = icmp sge i32 %125, 0
  br i1 %126, label %127, label %138

127:                                              ; preds = %112
  %128 = load i32, ptr %28, align 4, !tbaa !32
  %129 = load i32, ptr %19, align 4, !tbaa !32
  %130 = icmp slt i32 %128, %129
  br i1 %130, label %131, label %138

131:                                              ; preds = %127
  %132 = load ptr, ptr %24, align 8, !tbaa !96
  %133 = load i32, ptr %29, align 4, !tbaa !32
  %134 = sext i32 %133 to i64
  %135 = getelementptr inbounds i8, ptr %132, i64 %134
  %136 = load i8, ptr %135, align 1, !tbaa !97
  %137 = zext i8 %136 to i32
  br label %145

138:                                              ; preds = %127, %112
  %139 = load ptr, ptr %23, align 8, !tbaa !96
  %140 = load i32, ptr %27, align 4, !tbaa !32
  %141 = sext i32 %140 to i64
  %142 = getelementptr inbounds i8, ptr %139, i64 %141
  %143 = load i8, ptr %142, align 1, !tbaa !97
  %144 = zext i8 %143 to i32
  br label %145

145:                                              ; preds = %138, %131
  %146 = phi i32 [ %137, %131 ], [ %144, %138 ]
  %147 = trunc i32 %146 to i8
  %148 = load ptr, ptr %25, align 8, !tbaa !96
  %149 = load i32, ptr %27, align 4, !tbaa !32
  %150 = sext i32 %149 to i64
  %151 = getelementptr inbounds i8, ptr %148, i64 %150
  store i8 %147, ptr %151, align 1, !tbaa !97
  call void @llvm.lifetime.end.p0(i64 4, ptr %29) #10
  call void @llvm.lifetime.end.p0(i64 4, ptr %28) #10
  br label %152

152:                                              ; preds = %145
  %153 = load i32, ptr %27, align 4, !tbaa !32
  %154 = add nsw i32 %153, 1
  store i32 %154, ptr %27, align 4, !tbaa !32
  br label %107, !llvm.loop !414

155:                                              ; preds = %111
  %156 = load ptr, ptr %12, align 8, !tbaa !36
  %157 = getelementptr inbounds nuw %struct.AVFrame, ptr %156, i32 0, i32 1
  %158 = load i32, ptr %21, align 4, !tbaa !32
  %159 = sext i32 %158 to i64
  %160 = getelementptr inbounds [8 x i32], ptr %157, i64 0, i64 %159
  %161 = load i32, ptr %160, align 4, !tbaa !32
  %162 = sdiv i32 %161, 1
  %163 = load ptr, ptr %25, align 8, !tbaa !96
  %164 = sext i32 %162 to i64
  %165 = getelementptr inbounds i8, ptr %163, i64 %164
  store ptr %165, ptr %25, align 8, !tbaa !96
  %166 = load ptr, ptr %10, align 8, !tbaa !36
  %167 = getelementptr inbounds nuw %struct.AVFrame, ptr %166, i32 0, i32 1
  %168 = load i32, ptr %21, align 4, !tbaa !32
  %169 = sext i32 %168 to i64
  %170 = getelementptr inbounds [8 x i32], ptr %167, i64 0, i64 %169
  %171 = load i32, ptr %170, align 4, !tbaa !32
  %172 = sdiv i32 %171, 1
  %173 = load ptr, ptr %23, align 8, !tbaa !96
  %174 = sext i32 %172 to i64
  %175 = getelementptr inbounds i8, ptr %173, i64 %174
  store ptr %175, ptr %23, align 8, !tbaa !96
  %176 = load ptr, ptr %11, align 8, !tbaa !36
  %177 = getelementptr inbounds nuw %struct.AVFrame, ptr %176, i32 0, i32 1
  %178 = load i32, ptr %21, align 4, !tbaa !32
  %179 = sext i32 %178 to i64
  %180 = getelementptr inbounds [8 x i32], ptr %177, i64 0, i64 %179
  %181 = load i32, ptr %180, align 4, !tbaa !32
  %182 = sdiv i32 %181, 1
  %183 = load ptr, ptr %24, align 8, !tbaa !96
  %184 = sext i32 %182 to i64
  %185 = getelementptr inbounds i8, ptr %183, i64 %184
  store ptr %185, ptr %24, align 8, !tbaa !96
  br label %186

186:                                              ; preds = %155
  %187 = load i32, ptr %26, align 4, !tbaa !32
  %188 = add nsw i32 %187, 1
  store i32 %188, ptr %26, align 4, !tbaa !32
  br label %101, !llvm.loop !415

189:                                              ; preds = %105
  call void @llvm.lifetime.end.p0(i64 8, ptr %25) #10
  call void @llvm.lifetime.end.p0(i64 8, ptr %24) #10
  call void @llvm.lifetime.end.p0(i64 8, ptr %23) #10
  br label %190

190:                                              ; preds = %189
  %191 = load i32, ptr %21, align 4, !tbaa !32
  %192 = add nsw i32 %191, 1
  store i32 %192, ptr %21, align 4, !tbaa !32
  br label %45, !llvm.loop !416

193:                                              ; preds = %51
  call void @llvm.lifetime.end.p0(i64 4, ptr %20) #10
  call void @llvm.lifetime.end.p0(i64 4, ptr %19) #10
  call void @llvm.lifetime.end.p0(i64 4, ptr %18) #10
  call void @llvm.lifetime.end.p0(i64 8, ptr %17) #10
  ret void
}