; Function Attrs: nofree norecurse nosync nounwind memory(readwrite, inaccessiblemem: none) uwtable
define internal void @coverleft8_transition(ptr noundef readonly captures(none) %0, ptr noundef readonly captures(none) %1, ptr noundef readonly captures(none) %2, ptr noundef readonly captures(none) %3, float noundef %4, i32 noundef %5, i32 noundef %6, i32 %7) #6 {
  %9 = getelementptr inbounds nuw i8, ptr %0, i64 72
  %10 = load ptr, ptr %9, align 8, !tbaa !4
  %11 = sub i32 %6, %5
  %12 = getelementptr inbounds nuw i8, ptr %3, i64 104
  %13 = load i32, ptr %12, align 8, !tbaa !85
  %14 = fneg nsz float %4
  %15 = sitofp i32 %13 to float
  %16 = fmul nsz float %14, %15
  %17 = fptosi float %16 to i32
  %18 = getelementptr inbounds nuw i8, ptr %10, i64 40
  %19 = load i32, ptr %18, align 8, !tbaa !77
  %20 = icmp sgt i32 %19, 0
  br i1 %20, label %.lr.ph, label %._crit_edge

.lr.ph:                                           ; preds = %8
  %21 = getelementptr inbounds nuw i8, ptr %1, i64 64
  %22 = getelementptr inbounds nuw i8, ptr %2, i64 64
  %23 = getelementptr inbounds nuw i8, ptr %3, i64 64
  %24 = icmp sgt i32 %11, 0
  %25 = icmp sgt i32 %13, 0
  %or.cond = select i1 %24, i1 %25, i1 false
  br i1 %or.cond, label %.preheader.lr.ph.us.us.preheader, label %._crit_edge

.preheader.lr.ph.us.us.preheader:                 ; preds = %.lr.ph
  %26 = sext i32 %17 to i64
  %27 = zext nneg i32 %13 to i64
  %wide.trip.count = zext nneg i32 %13 to i64
  br label %.preheader.lr.ph.us.us

.preheader.lr.ph.us.us:                           ; preds = %.preheader.lr.ph.us.us.preheader, %._crit_edge66.split.us.us.us
  %indvars.iv79 = phi i64 [ 0, %.preheader.lr.ph.us.us.preheader ], [ %indvars.iv.next80, %._crit_edge66.split.us.us.us ]
  %28 = getelementptr inbounds nuw [8 x ptr], ptr %1, i64 0, i64 %indvars.iv79
  %29 = load ptr, ptr %28, align 8, !tbaa !89
  %30 = getelementptr inbounds nuw [8 x i32], ptr %21, i64 0, i64 %indvars.iv79
  %31 = load i32, ptr %30, align 4, !tbaa !31
  %32 = mul nsw i32 %31, %5
  %33 = sext i32 %32 to i64
  %34 = getelementptr inbounds i8, ptr %29, i64 %33
  %35 = getelementptr inbounds nuw [8 x ptr], ptr %2, i64 0, i64 %indvars.iv79
  %36 = load ptr, ptr %35, align 8, !tbaa !89
  %37 = getelementptr inbounds nuw [8 x i32], ptr %22, i64 0, i64 %indvars.iv79
  %38 = load i32, ptr %37, align 4, !tbaa !31
  %39 = mul nsw i32 %38, %5
  %40 = sext i32 %39 to i64
  %41 = getelementptr inbounds i8, ptr %36, i64 %40
  %42 = getelementptr inbounds nuw [8 x ptr], ptr %3, i64 0, i64 %indvars.iv79
  %43 = load ptr, ptr %42, align 8, !tbaa !89
  %44 = getelementptr inbounds nuw [8 x i32], ptr %23, i64 0, i64 %indvars.iv79
  %45 = load i32, ptr %44, align 4, !tbaa !31
  %46 = mul nsw i32 %45, %5
  %47 = sext i32 %46 to i64
  %48 = getelementptr inbounds i8, ptr %43, i64 %47
  br label %.preheader.us.us.us

.preheader.us.us.us:                              ; preds = %._crit_edge.us.us.us, %.preheader.lr.ph.us.us
  %.05465.us.us.us = phi i32 [ 0, %.preheader.lr.ph.us.us ], [ %70, %._crit_edge.us.us.us ]
  %.05564.us.us.us = phi ptr [ %48, %.preheader.lr.ph.us.us ], [ %63, %._crit_edge.us.us.us ]
  %.05663.us.us.us = phi ptr [ %41, %.preheader.lr.ph.us.us ], [ %69, %._crit_edge.us.us.us ]
  %.05762.us.us.us = phi ptr [ %34, %.preheader.lr.ph.us.us ], [ %66, %._crit_edge.us.us.us ]
  br label %49

49:                                               ; preds = %49, %.preheader.us.us.us
  %indvars.iv = phi i64 [ %indvars.iv.next, %49 ], [ 0, %.preheader.us.us.us ]
  %50 = add nsw i64 %indvars.iv, %26
  %51 = trunc nsw i64 %50 to i32
  %52 = srem i32 %51, %13
  %isneg.us.us.us = icmp slt i64 %50, 0
  %53 = select i1 %isneg.us.us.us, i32 %13, i32 0
  %54 = add nsw i32 %52, %53
  %55 = icmp sgt i64 %50, -1
  %56 = icmp slt i64 %50, %27
  %or.cond.us.us.us = select i1 %55, i1 %56, i1 false
  %57 = sext i32 %54 to i64
  %58 = getelementptr inbounds i8, ptr %.05663.us.us.us, i64 %57
  %59 = getelementptr inbounds nuw i8, ptr %.05762.us.us.us, i64 %indvars.iv
  %.in.in.us.us.us = select i1 %or.cond.us.us.us, ptr %58, ptr %59
  %.in60.us.us.us = load i8, ptr %.in.in.us.us.us, align 1, !tbaa !90
  %60 = getelementptr inbounds nuw i8, ptr %.05564.us.us.us, i64 %indvars.iv
  store i8 %.in60.us.us.us, ptr %60, align 1, !tbaa !90
  %indvars.iv.next = add nuw nsw i64 %indvars.iv, 1
  %exitcond.not = icmp eq i64 %indvars.iv.next, %wide.trip.count
  br i1 %exitcond.not, label %._crit_edge.us.us.us, label %49, !llvm.loop !406

._crit_edge.us.us.us:                             ; preds = %49
  %61 = load i32, ptr %44, align 4, !tbaa !31
  %62 = sext i32 %61 to i64
  %63 = getelementptr inbounds i8, ptr %.05564.us.us.us, i64 %62
  %64 = load i32, ptr %30, align 4, !tbaa !31
  %65 = sext i32 %64 to i64
  %66 = getelementptr inbounds i8, ptr %.05762.us.us.us, i64 %65
  %67 = load i32, ptr %37, align 4, !tbaa !31
  %68 = sext i32 %67 to i64
  %69 = getelementptr inbounds i8, ptr %.05663.us.us.us, i64 %68
  %70 = add nuw nsw i32 %.05465.us.us.us, 1
  %exitcond78.not = icmp eq i32 %70, %11
  br i1 %exitcond78.not, label %._crit_edge66.split.us.us.us, label %.preheader.us.us.us, !llvm.loop !407

._crit_edge66.split.us.us.us:                     ; preds = %._crit_edge.us.us.us
  %indvars.iv.next80 = add nuw nsw i64 %indvars.iv79, 1
  %71 = load i32, ptr %18, align 8, !tbaa !77
  %72 = sext i32 %71 to i64
  %73 = icmp slt i64 %indvars.iv.next80, %72
  br i1 %73, label %.preheader.lr.ph.us.us, label %._crit_edge, !llvm.loop !408

._crit_edge:                                      ; preds = %._crit_edge66.split.us.us.us, %.lr.ph, %8
  ret void
}